; Function Attrs: mustprogress nounwind uwtable
define hidden noundef ptr @_ZN8nanobind6detail12call_one_argEP7_objectS2_(ptr noundef %0, ptr noundef %1) local_unnamed_addr #5 personality ptr @__gxx_personality_v0 {
  %3 = alloca [2 x ptr], align 16
  call void @llvm.lifetime.start.p0(i64 16, ptr nonnull %3) #29
  store ptr null, ptr %3, align 16
  %4 = getelementptr inbounds nuw i8, ptr %3, i64 8
  store ptr %1, ptr %4, align 8
  %5 = invoke ptr @PyThreadState_Get()
          to label %.noexc unwind label %18

.noexc:                                           ; preds = %2
  %6 = getelementptr inbounds nuw i8, ptr %0, i64 8
  %7 = load ptr, ptr %6, align 8
  %8 = getelementptr i8, ptr %7, i64 168
  %.val.i.i.i = load i64, ptr %8, align 8
  %9 = and i64 %.val.i.i.i, 2048
  %.not.i.i.i = icmp eq i64 %9, 0
  br i1 %.not.i.i.i, label %_ZL21PyVectorcall_FunctionP7_object.exit.thread.i.i, label %_ZL21PyVectorcall_FunctionP7_object.exit.i.i

_ZL21PyVectorcall_FunctionP7_object.exit.i.i:     ; preds = %.noexc
  %10 = getelementptr inbounds nuw i8, ptr %7, i64 56
  %11 = load i64, ptr %10, align 8
  %12 = getelementptr inbounds i8, ptr %0, i64 %11
  %.0.copyload.i.i.i = load ptr, ptr %12, align 1
  %13 = icmp eq ptr %.0.copyload.i.i.i, null
  br i1 %13, label %_ZL21PyVectorcall_FunctionP7_object.exit.thread.i.i, label %15

_ZL21PyVectorcall_FunctionP7_object.exit.thread.i.i: ; preds = %_ZL21PyVectorcall_FunctionP7_object.exit.i.i, %.noexc
  %14 = invoke ptr @_PyObject_MakeTpCall(ptr noundef %5, ptr noundef nonnull %0, ptr noundef nonnull %4, i64 noundef 1, ptr noundef null)
          to label %_ZL19PyObject_VectorcallP7_objectPKS0_mS0_.exit unwind label %18

15:                                               ; preds = %_ZL21PyVectorcall_FunctionP7_object.exit.i.i
  %16 = invoke noundef ptr %.0.copyload.i.i.i(ptr noundef nonnull %0, ptr noundef nonnull %4, i64 noundef -9223372036854775807, ptr noundef null)
          to label %.noexc4 unwind label %18

.noexc4:                                          ; preds = %15
  %17 = invoke ptr @_Py_CheckFunctionResult(ptr noundef %5, ptr noundef nonnull %0, ptr noundef %16, ptr noundef null)
          to label %_ZL19PyObject_VectorcallP7_objectPKS0_mS0_.exit unwind label %18

_ZL19PyObject_VectorcallP7_objectPKS0_mS0_.exit:  ; preds = %_ZL21PyVectorcall_FunctionP7_object.exit.thread.i.i, %.noexc4
  %.0.i.i = phi ptr [ %14, %_ZL21PyVectorcall_FunctionP7_object.exit.thread.i.i ], [ %17, %.noexc4 ]
  call void @llvm.lifetime.end.p0(i64 16, ptr nonnull %3) #29
  ret ptr %.0.i.i

18:                                               ; preds = %.noexc4, %15, %_ZL21PyVectorcall_FunctionP7_object.exit.thread.i.i, %2
  %19 = landingpad { ptr, i32 }
          catch ptr null
  %20 = extractvalue { ptr, i32 } %19, 0
  call void @__clang_call_terminate(ptr %20) #30
  unreachable
}